target datalayout = "e-m:e-p270:32:32-p271:32:32-p272:64:64-i64:64-i128:128-f80:128-n8:16:32:64-S128"
target triple = "x86_64-pc-linux-gnu"

%struct.hb_ot_shaper_t = type { ptr, ptr, ptr, ptr, ptr, ptr, ptr, ptr, ptr, ptr, i32, i32, i32, i8 }
%struct.hb_segment_properties_t = type { i32, i32, ptr, ptr, ptr }
%struct.hb_ot_shape_plan_t = type <{ %struct.hb_segment_properties_t, ptr, %struct.hb_ot_map_t, ptr, i32, i32, i32, i32, i32, i32, i16, [6 x i8] }>
%struct.hb_ot_map_t = type { [2 x i32], [2 x i8], i32, %struct.hb_vector_t.1, [2 x %struct.hb_vector_t.2], [2 x %struct.hb_vector_t.3] }
%struct.hb_vector_t.1 = type { i32, i32, ptr }
%struct.hb_vector_t.2 = type { i32, i32, ptr }
%struct.hb_vector_t.3 = type { i32, i32, ptr }

; Function Attrs: mustprogress nounwind uwtable
define linkonce_odr hidden void @_ZN11hb_vector_tIN11hb_ot_map_t11stage_map_tELb0EE4initEv(ptr noundef nonnull align 8 dereferenceable(16) %0) #3 comdat align 2 {
  %2 = alloca ptr, align 8
  store ptr %0, ptr %2, align 8
  %3 = load ptr, ptr %2, align 8
  %4 = getelementptr inbounds %struct.hb_vector_t.3, ptr %3, i32 0, i32 1
  store i32 0, ptr %4, align 4
  %5 = getelementptr inbounds %struct.hb_vector_t.3, ptr %3, i32 0, i32 0
  store i32 0, ptr %5, align 8
  %6 = getelementptr inbounds %struct.hb_vector_t.3, ptr %3, i32 0, i32 2
  store ptr null, ptr %6, align 8
  ret void
}

; Function Attrs: mustprogress nounwind uwtable
define linkonce_odr hidden void @_ZN11hb_vector_tIN11hb_ot_map_t11stage_map_tELb0EE13shrink_vectorEj(ptr noundef nonnull align 8 dereferenceable(16) %0, i32 noundef %1) #3 comdat align 2 {
  %3 = alloca ptr, align 8
  %4 = alloca i32, align 4
  store ptr %0, ptr %3, align 8
  store i32 %1, ptr %4, align 4
  %5 = load ptr, ptr %3, align 8
  %6 = load i32, ptr %4, align 4
  %7 = getelementptr inbounds %struct.hb_vector_t.3, ptr %5, i32 0, i32 1
  store i32 %6, ptr %7, align 4
  ret void
}

; Function Attrs: mustprogress nounwind uwtable
define linkonce_odr hidden void @_ZN11hb_vector_tIN11hb_ot_map_t12lookup_map_tELb0EE4initEv(ptr noundef nonnull align 8 dereferenceable(16) %0) #3 comdat align 2 {
  %2 = alloca ptr, align 8
  store ptr %0, ptr %2, align 8
  %3 = load ptr, ptr %2, align 8
  %4 = getelementptr inbounds %struct.hb_vector_t.2, ptr %3, i32 0, i32 1
  store i32 0, ptr %4, align 4
  %5 = getelementptr inbounds %struct.hb_vector_t.2, ptr %3, i32 0, i32 0
  store i32 0, ptr %5, align 8
  %6 = getelementptr inbounds %struct.hb_vector_t.2, ptr %3, i32 0, i32 2
  store ptr null, ptr %6, align 8
  ret void
}

; Function Attrs: mustprogress nounwind uwtable
define linkonce_odr hidden void @_ZN11hb_vector_tIN11hb_ot_map_t12lookup_map_tELb0EE13shrink_vectorEj(ptr noundef nonnull align 8 dereferenceable(16) %0, i32 noundef %1) #3 comdat align 2 {
  %3 = alloca ptr, align 8
  %4 = alloca i32, align 4
  store ptr %0, ptr %3, align 8
  store i32 %1, ptr %4, align 4
  %5 = load ptr, ptr %3, align 8
  %6 = load i32, ptr %4, align 4
  %7 = getelementptr inbounds %struct.hb_vector_t.2, ptr %5, i32 0, i32 1
  store i32 %6, ptr %7, align 4
  ret void
}

; Function Attrs: mustprogress nounwind uwtable
define linkonce_odr hidden void @_ZN11hb_vector_tIN11hb_ot_map_t13feature_map_tELb1EE4initEv(ptr noundef nonnull align 8 dereferenceable(16) %0) #3 comdat align 2 {
  %2 = alloca ptr, align 8
  store ptr %0, ptr %2, align 8
  %3 = load ptr, ptr %2, align 8
  %4 = getelementptr inbounds %struct.hb_vector_t.1, ptr %3, i32 0, i32 1
  store i32 0, ptr %4, align 4
  %5 = getelementptr inbounds %struct.hb_vector_t.1, ptr %3, i32 0, i32 0
  store i32 0, ptr %5, align 8
  %6 = getelementptr inbounds %struct.hb_vector_t.1, ptr %3, i32 0, i32 2
  store ptr null, ptr %6, align 8
  ret void
}

; Function Attrs: mustprogress nounwind uwtable
define linkonce_odr hidden void @_ZN11hb_vector_tIN11hb_ot_map_t13feature_map_tELb1EE13shrink_vectorEj(ptr noundef nonnull align 8 dereferenceable(16) %0, i32 noundef %1) #3 comdat align 2 {
  %3 = alloca ptr, align 8
  %4 = alloca i32, align 4
  store ptr %0, ptr %3, align 8
  store i32 %1, ptr %4, align 4
  %5 = load ptr, ptr %3, align 8
  %6 = load i32, ptr %4, align 4
  %7 = getelementptr inbounds %struct.hb_vector_t.1, ptr %5, i32 0, i32 1
  store i32 %6, ptr %7, align 4
  ret void
}

; Function Attrs: mustprogress uwtable
define linkonce_odr hidden void @_ZN11hb_vector_tIN11hb_ot_map_t11stage_map_tELb0EE4finiEv(ptr noundef nonnull align 8 dereferenceable(16) %0) #0 comdat align 2 {
  %2 = alloca ptr, align 8
  store ptr %0, ptr %2, align 8
  %3 = load ptr, ptr %2, align 8
  %4 = getelementptr inbounds %struct.hb_vector_t.3, ptr %3, i32 0, i32 0
  %5 = load i32, ptr %4, align 8
  %6 = icmp ne i32 %5, 0
  br i1 %6, label %7, label %10

7:                                                ; preds = %1
  call void @_ZN11hb_vector_tIN11hb_ot_map_t11stage_map_tELb0EE13shrink_vectorEj(ptr noundef nonnull align 8 dereferenceable(16) %3, i32 noundef 0)
  %8 = getelementptr inbounds %struct.hb_vector_t.3, ptr %3, i32 0, i32 2
  %9 = load ptr, ptr %8, align 8
  call void @free(ptr noundef %9) #9
  br label %10

10:                                               ; preds = %7, %1
  call void @_ZN11hb_vector_tIN11hb_ot_map_t11stage_map_tELb0EE4initEv(ptr noundef nonnull align 8 dereferenceable(16) %3)
  ret void
}

; Function Attrs: mustprogress uwtable
define linkonce_odr hidden void @_ZN11hb_vector_tIN11hb_ot_map_t12lookup_map_tELb0EE4finiEv(ptr noundef nonnull align 8 dereferenceable(16) %0) #0 comdat align 2 {
  %2 = alloca ptr, align 8
  store ptr %0, ptr %2, align 8
  %3 = load ptr, ptr %2, align 8
  %4 = getelementptr inbounds %struct.hb_vector_t.2, ptr %3, i32 0, i32 0
  %5 = load i32, ptr %4, align 8
  %6 = icmp ne i32 %5, 0
  br i1 %6, label %7, label %10

7:                                                ; preds = %1
  call void @_ZN11hb_vector_tIN11hb_ot_map_t12lookup_map_tELb0EE13shrink_vectorEj(ptr noundef nonnull align 8 dereferenceable(16) %3, i32 noundef 0)
  %8 = getelementptr inbounds %struct.hb_vector_t.2, ptr %3, i32 0, i32 2
  %9 = load ptr, ptr %8, align 8
  call void @free(ptr noundef %9) #9
  br label %10

10:                                               ; preds = %7, %1
  call void @_ZN11hb_vector_tIN11hb_ot_map_t12lookup_map_tELb0EE4initEv(ptr noundef nonnull align 8 dereferenceable(16) %3)
  ret void
}

; Function Attrs: mustprogress uwtable
define linkonce_odr hidden void @_ZN11hb_vector_tIN11hb_ot_map_t13feature_map_tELb1EE4finiEv(ptr noundef nonnull align 8 dereferenceable(16) %0) #0 comdat align 2 {
  %2 = alloca ptr, align 8
  store ptr %0, ptr %2, align 8
  %3 = load ptr, ptr %2, align 8
  %4 = getelementptr inbounds %struct.hb_vector_t.1, ptr %3, i32 0, i32 0
  %5 = load i32, ptr %4, align 8
  %6 = icmp ne i32 %5, 0
  br i1 %6, label %7, label %10

7:                                                ; preds = %1
  call void @_ZN11hb_vector_tIN11hb_ot_map_t13feature_map_tELb1EE13shrink_vectorEj(ptr noundef nonnull align 8 dereferenceable(16) %3, i32 noundef 0)
  %8 = getelementptr inbounds %struct.hb_vector_t.1, ptr %3, i32 0, i32 2
  %9 = load ptr, ptr %8, align 8
  call void @free(ptr noundef %9) #9
  br label %10

10:                                               ; preds = %7, %1
  call void @_ZN11hb_vector_tIN11hb_ot_map_t13feature_map_tELb1EE4initEv(ptr noundef nonnull align 8 dereferenceable(16) %3)
  ret void
}

; Function Attrs: mustprogress uwtable
define linkonce_odr hidden void @_ZN11hb_ot_map_t4finiEv(ptr noundef nonnull align 8 dereferenceable(96) %0) #0 comdat align 2 {
  %2 = alloca ptr, align 8
  %3 = alloca i32, align 4
  store ptr %0, ptr %2, align 8
  %4 = load ptr, ptr %2, align 8
  %5 = getelementptr inbounds %struct.hb_ot_map_t, ptr %4, i32 0, i32 3
  call void @_ZN11hb_vector_tIN11hb_ot_map_t13feature_map_tELb1EE4finiEv(ptr noundef nonnull align 8 dereferenceable(16) %5)
  store i32 0, ptr %3, align 4
  br label %6

6:                                                ; preds = %18, %1
  %7 = load i32, ptr %3, align 4
  %8 = icmp ult i32 %7, 2
  br i1 %8, label %9, label %21

9:                                                ; preds = %6
  %10 = getelementptr inbounds %struct.hb_ot_map_t, ptr %4, i32 0, i32 4
  %11 = load i32, ptr %3, align 4
  %12 = zext i32 %11 to i64
  %13 = getelementptr inbounds [2 x %struct.hb_vector_t.2], ptr %10, i64 0, i64 %12
  call void @_ZN11hb_vector_tIN11hb_ot_map_t12lookup_map_tELb0EE4finiEv(ptr noundef nonnull align 8 dereferenceable(16) %13)
  %14 = getelementptr inbounds %struct.hb_ot_map_t, ptr %4, i32 0, i32 5
  %15 = load i32, ptr %3, align 4
  %16 = zext i32 %15 to i64
  %17 = getelementptr inbounds [2 x %struct.hb_vector_t.3], ptr %14, i64 0, i64 %16
  call void @_ZN11hb_vector_tIN11hb_ot_map_t11stage_map_tELb0EE4finiEv(ptr noundef nonnull align 8 dereferenceable(16) %17)
  br label %18

18:                                               ; preds = %9
  %19 = load i32, ptr %3, align 4
  %20 = add i32 %19, 1
  store i32 %20, ptr %3, align 4
  br label %6, !llvm.loop !11

21:                                               ; preds = %6
  ret void
}

; Function Attrs: mustprogress uwtable
define hidden void @_ZN18hb_ot_shape_plan_t4finiEv(ptr noundef nonnull align 8 dereferenceable(170) %0) #0 align 2 {
  %2 = alloca ptr, align 8
  store ptr %0, ptr %2, align 8
  %3 = load ptr, ptr %2, align 8
  %4 = getelementptr inbounds %struct.hb_ot_shape_plan_t, ptr %3, i32 0, i32 1
  %5 = load ptr, ptr %4, align 8
  %6 = getelementptr inbounds %struct.hb_ot_shaper_t, ptr %5, i32 0, i32 3
  %7 = load ptr, ptr %6, align 8
  %8 = icmp ne ptr %7, null
  br i1 %8, label %9, label %16

9:                                                ; preds = %1
  %10 = getelementptr inbounds %struct.hb_ot_shape_plan_t, ptr %3, i32 0, i32 1
  %11 = load ptr, ptr %10, align 8
  %12 = getelementptr inbounds %struct.hb_ot_shaper_t, ptr %11, i32 0, i32 3
  %13 = load ptr, ptr %12, align 8
  %14 = getelementptr inbounds %struct.hb_ot_shape_plan_t, ptr %3, i32 0, i32 3
  %15 = load ptr, ptr %14, align 8
  call void %13(ptr noundef %15)
  br label %16

16:                                               ; preds = %9, %1
  %17 = getelementptr inbounds %struct.hb_ot_shape_plan_t, ptr %3, i32 0, i32 2
  call void @_ZN11hb_ot_map_t4finiEv(ptr noundef nonnull align 8 dereferenceable(96) %17)
  ret void
}