; Function Attrs: mustprogress uwtable
define hidden void @_ZN18hb_ot_shape_plan_t4finiEv(ptr nocapture noundef nonnull align 8 dereferenceable(170) %0) local_unnamed_addr #0 align 2 {
  %2 = getelementptr inbounds i8, ptr %0, i64 32
  %3 = load ptr, ptr %2, align 8
  %4 = getelementptr inbounds i8, ptr %3, i64 24
  %5 = load ptr, ptr %4, align 8
  %.not = icmp eq ptr %5, null
  br i1 %.not, label %9, label %6

6:                                                ; preds = %1
  %7 = getelementptr inbounds i8, ptr %0, i64 136
  %8 = load ptr, ptr %7, align 8
  tail call void %5(ptr noundef %8)
  br label %9

9:                                                ; preds = %6, %1
  %10 = getelementptr inbounds i8, ptr %0, i64 56
  %11 = load i32, ptr %10, align 8
  %.not.i.i = icmp eq i32 %11, 0
  br i1 %.not.i.i, label %_ZN11hb_vector_tIN11hb_ot_map_t13feature_map_tELb1EE4finiEv.exit.i, label %12

12:                                               ; preds = %9
  %13 = getelementptr inbounds i8, ptr %0, i64 60
  store i32 0, ptr %13, align 4
  %14 = getelementptr inbounds i8, ptr %0, i64 64
  %15 = load ptr, ptr %14, align 8
  tail call void @free(ptr noundef %15) #12
  br label %_ZN11hb_vector_tIN11hb_ot_map_t13feature_map_tELb1EE4finiEv.exit.i

_ZN11hb_vector_tIN11hb_ot_map_t13feature_map_tELb1EE4finiEv.exit.i: ; preds = %12, %9
  tail call void @llvm.memset.p0.i64(ptr noundef nonnull align 8 dereferenceable(16) %10, i8 0, i64 16, i1 false)
  %16 = getelementptr inbounds i8, ptr %0, i64 72
  %17 = getelementptr inbounds i8, ptr %0, i64 104
  br label %18

18:                                               ; preds = %_ZN11hb_vector_tIN11hb_ot_map_t11stage_map_tELb0EE4finiEv.exit.i, %_ZN11hb_vector_tIN11hb_ot_map_t13feature_map_tELb1EE4finiEv.exit.i
  %19 = phi i1 [ true, %_ZN11hb_vector_tIN11hb_ot_map_t13feature_map_tELb1EE4finiEv.exit.i ], [ false, %_ZN11hb_vector_tIN11hb_ot_map_t11stage_map_tELb0EE4finiEv.exit.i ]
  %indvars.iv.i = phi i64 [ 0, %_ZN11hb_vector_tIN11hb_ot_map_t13feature_map_tELb1EE4finiEv.exit.i ], [ 1, %_ZN11hb_vector_tIN11hb_ot_map_t11stage_map_tELb0EE4finiEv.exit.i ]
  %20 = getelementptr inbounds [2 x %struct.hb_vector_t.2], ptr %16, i64 0, i64 %indvars.iv.i
  %21 = load i32, ptr %20, align 8
  %.not.i4.i = icmp eq i32 %21, 0
  br i1 %.not.i4.i, label %_ZN11hb_vector_tIN11hb_ot_map_t12lookup_map_tELb0EE4finiEv.exit.i, label %22

22:                                               ; preds = %18
  %23 = getelementptr inbounds i8, ptr %20, i64 4
  store i32 0, ptr %23, align 4
  %24 = getelementptr inbounds i8, ptr %20, i64 8
  %25 = load ptr, ptr %24, align 8
  tail call void @free(ptr noundef %25) #12
  br label %_ZN11hb_vector_tIN11hb_ot_map_t12lookup_map_tELb0EE4finiEv.exit.i

_ZN11hb_vector_tIN11hb_ot_map_t12lookup_map_tELb0EE4finiEv.exit.i: ; preds = %22, %18
  tail call void @llvm.memset.p0.i64(ptr noundef nonnull align 8 dereferenceable(16) %20, i8 0, i64 16, i1 false)
  %26 = getelementptr inbounds [2 x %struct.hb_vector_t.3], ptr %17, i64 0, i64 %indvars.iv.i
  %27 = load i32, ptr %26, align 8
  %.not.i5.i = icmp eq i32 %27, 0
  br i1 %.not.i5.i, label %_ZN11hb_vector_tIN11hb_ot_map_t11stage_map_tELb0EE4finiEv.exit.i, label %28

28:                                               ; preds = %_ZN11hb_vector_tIN11hb_ot_map_t12lookup_map_tELb0EE4finiEv.exit.i
  %29 = getelementptr inbounds i8, ptr %26, i64 4
  store i32 0, ptr %29, align 4
  %30 = getelementptr inbounds i8, ptr %26, i64 8
  %31 = load ptr, ptr %30, align 8
  tail call void @free(ptr noundef %31) #12
  br label %_ZN11hb_vector_tIN11hb_ot_map_t11stage_map_tELb0EE4finiEv.exit.i

_ZN11hb_vector_tIN11hb_ot_map_t11stage_map_tELb0EE4finiEv.exit.i: ; preds = %28, %_ZN11hb_vector_tIN11hb_ot_map_t12lookup_map_tELb0EE4finiEv.exit.i
  tail call void @llvm.memset.p0.i64(ptr noundef nonnull align 8 dereferenceable(16) %26, i8 0, i64 16, i1 false)
  br i1 %19, label %18, label %_ZN11hb_ot_map_t4finiEv.exit, !llvm.loop !11

_ZN11hb_ot_map_t4finiEv.exit:                     ; preds = %_ZN11hb_vector_tIN11hb_ot_map_t11stage_map_tELb0EE4finiEv.exit.i
  ret void
}